
hw1.elf:     file format elf64-x86-64


Disassembly of section .init:

0000000000400460 <_init>:
  400460:	48 83 ec 08          	sub    $0x8,%rsp
  400464:	48 8b 05 8d 0b 20 00 	mov    0x200b8d(%rip),%rax        # 600ff8 <_DYNAMIC+0x1d0>
  40046b:	48 85 c0             	test   %rax,%rax
  40046e:	74 05                	je     400475 <_init+0x15>
  400470:	e8 2b 00 00 00       	callq  4004a0 <__gmon_start__@plt>
  400475:	48 83 c4 08          	add    $0x8,%rsp
  400479:	c3                   	retq   

Disassembly of section .plt:

0000000000400480 <__libc_start_main@plt-0x10>:
  400480:	ff 35 82 0b 20 00    	pushq  0x200b82(%rip)        # 601008 <_GLOBAL_OFFSET_TABLE_+0x8>
  400486:	ff 25 84 0b 20 00    	jmpq   *0x200b84(%rip)        # 601010 <_GLOBAL_OFFSET_TABLE_+0x10>
  40048c:	0f 1f 40 00          	nopl   0x0(%rax)

0000000000400490 <__libc_start_main@plt>:
  400490:	ff 25 82 0b 20 00    	jmpq   *0x200b82(%rip)        # 601018 <_GLOBAL_OFFSET_TABLE_+0x18>
  400496:	68 00 00 00 00       	pushq  $0x0
  40049b:	e9 e0 ff ff ff       	jmpq   400480 <_init+0x20>

00000000004004a0 <__gmon_start__@plt>:
  4004a0:	ff 25 7a 0b 20 00    	jmpq   *0x200b7a(%rip)        # 601020 <_GLOBAL_OFFSET_TABLE_+0x20>
  4004a6:	68 01 00 00 00       	pushq  $0x1
  4004ab:	e9 d0 ff ff ff       	jmpq   400480 <_init+0x20>

00000000004004b0 <__isoc99_sscanf@plt>:
  4004b0:	ff 25 72 0b 20 00    	jmpq   *0x200b72(%rip)        # 601028 <_GLOBAL_OFFSET_TABLE_+0x28>
  4004b6:	68 02 00 00 00       	pushq  $0x2
  4004bb:	e9 c0 ff ff ff       	jmpq   400480 <_init+0x20>

00000000004004c0 <__printf_chk@plt>:
  4004c0:	ff 25 6a 0b 20 00    	jmpq   *0x200b6a(%rip)        # 601030 <_GLOBAL_OFFSET_TABLE_+0x30>
  4004c6:	68 03 00 00 00       	pushq  $0x3
  4004cb:	e9 b0 ff ff ff       	jmpq   400480 <_init+0x20>

Disassembly of section .text:

00000000004004d0 <main>:
  4004d0:	53                   	push   %rbx
  4004d1:	48 89 f3             	mov    %rsi,%rbx
  4004d4:	48 83 ec 20          	sub    $0x20,%rsp
  4004d8:	83 ff 03             	cmp    $0x3,%edi
  4004db:	75 16                	jne    4004f3 <main+0x23>
  4004dd:	48 8b 46 08          	mov    0x8(%rsi),%rax
  4004e1:	80 38 62             	cmpb   $0x62,(%rax)
  4004e4:	74 61                	je     400547 <main+0x77>
  4004e6:	80 38 67             	cmpb   $0x67,(%rax)
  4004e9:	74 21                	je     40050c <main+0x3c>
  4004eb:	48 83 c4 20          	add    $0x20,%rsp
  4004ef:	31 c0                	xor    %eax,%eax
  4004f1:	5b                   	pop    %rbx
  4004f2:	c3                   	retq   
  4004f3:	48 8b 16             	mov    (%rsi),%rdx
  4004f6:	bf 01 00 00 00       	mov    $0x1,%edi
  4004fb:	be 08 0a 40 00       	mov    $0x400a08,%esi
  400500:	31 c0                	xor    %eax,%eax
  400502:	48 89 d1             	mov    %rdx,%rcx
  400505:	e8 b6 ff ff ff       	callq  4004c0 <__printf_chk@plt>
  40050a:	eb df                	jmp    4004eb <main+0x1b>
  40050c:	48 8b 7b 10          	mov    0x10(%rbx),%rdi
  400510:	48 89 e2             	mov    %rsp,%rdx
  400513:	be 40 0a 40 00       	mov    $0x400a40,%esi
  400518:	31 c0                	xor    %eax,%eax
  40051a:	e8 91 ff ff ff       	callq  4004b0 <__isoc99_sscanf@plt>
  40051f:	0f b7 3c 24          	movzwl (%rsp),%edi
  400523:	e8 e8 02 00 00       	callq  400810 <binary_to_gray>
  400528:	0f b7 14 24          	movzwl (%rsp),%edx
  40052c:	66 89 44 24 10       	mov    %ax,0x10(%rsp)
  400531:	0f b7 c8             	movzwl %ax,%ecx
  400534:	be 51 0a 40 00       	mov    $0x400a51,%esi
  400539:	bf 01 00 00 00       	mov    $0x1,%edi
  40053e:	31 c0                	xor    %eax,%eax
  400540:	e8 7b ff ff ff       	callq  4004c0 <__printf_chk@plt>
  400545:	eb a4                	jmp    4004eb <main+0x1b>
  400547:	48 8b 7e 10          	mov    0x10(%rsi),%rdi
  40054b:	48 8d 54 24 10       	lea    0x10(%rsp),%rdx
  400550:	be 40 0a 40 00       	mov    $0x400a40,%esi
  400555:	31 c0                	xor    %eax,%eax
  400557:	e8 54 ff ff ff       	callq  4004b0 <__isoc99_sscanf@plt>
  40055c:	0f b7 7c 24 10       	movzwl 0x10(%rsp),%edi
  400561:	e8 1a 01 00 00       	callq  400680 <gray_to_binary>
  400566:	0f b7 54 24 10       	movzwl 0x10(%rsp),%edx
  40056b:	66 89 04 24          	mov    %ax,(%rsp)
  40056f:	0f b7 c8             	movzwl %ax,%ecx
  400572:	be 43 0a 40 00       	mov    $0x400a43,%esi
  400577:	bf 01 00 00 00       	mov    $0x1,%edi
  40057c:	31 c0                	xor    %eax,%eax
  40057e:	e8 3d ff ff ff       	callq  4004c0 <__printf_chk@plt>
  400583:	48 8b 43 08          	mov    0x8(%rbx),%rax
  400587:	e9 5a ff ff ff       	jmpq   4004e6 <main+0x16>

000000000040058c <_start>:
  40058c:	31 ed                	xor    %ebp,%ebp
  40058e:	49 89 d1             	mov    %rdx,%r9
  400591:	5e                   	pop    %rsi
  400592:	48 89 e2             	mov    %rsp,%rdx
  400595:	48 83 e4 f0          	and    $0xfffffffffffffff0,%rsp
  400599:	50                   	push   %rax
  40059a:	54                   	push   %rsp
  40059b:	49 c7 c0 f0 09 40 00 	mov    $0x4009f0,%r8
  4005a2:	48 c7 c1 60 09 40 00 	mov    $0x400960,%rcx
  4005a9:	48 c7 c7 d0 04 40 00 	mov    $0x4004d0,%rdi
  4005b0:	e8 db fe ff ff       	callq  400490 <__libc_start_main@plt>
  4005b5:	f4                   	hlt    
  4005b6:	66 90                	xchg   %ax,%ax
  4005b8:	0f 1f 84 00 00 00 00 	nopl   0x0(%rax,%rax,1)
  4005bf:	00 

00000000004005c0 <deregister_tm_clones>:
  4005c0:	b8 4f 10 60 00       	mov    $0x60104f,%eax
  4005c5:	55                   	push   %rbp
  4005c6:	48 2d 48 10 60 00    	sub    $0x601048,%rax
  4005cc:	48 83 f8 0e          	cmp    $0xe,%rax
  4005d0:	48 89 e5             	mov    %rsp,%rbp
  4005d3:	77 02                	ja     4005d7 <deregister_tm_clones+0x17>
  4005d5:	5d                   	pop    %rbp
  4005d6:	c3                   	retq   
  4005d7:	b8 00 00 00 00       	mov    $0x0,%eax
  4005dc:	48 85 c0             	test   %rax,%rax
  4005df:	74 f4                	je     4005d5 <deregister_tm_clones+0x15>
  4005e1:	5d                   	pop    %rbp
  4005e2:	bf 48 10 60 00       	mov    $0x601048,%edi
  4005e7:	ff e0                	jmpq   *%rax
  4005e9:	0f 1f 80 00 00 00 00 	nopl   0x0(%rax)

00000000004005f0 <register_tm_clones>:
  4005f0:	b8 48 10 60 00       	mov    $0x601048,%eax
  4005f5:	55                   	push   %rbp
  4005f6:	48 2d 48 10 60 00    	sub    $0x601048,%rax
  4005fc:	48 c1 f8 03          	sar    $0x3,%rax
  400600:	48 89 e5             	mov    %rsp,%rbp
  400603:	48 89 c2             	mov    %rax,%rdx
  400606:	48 c1 ea 3f          	shr    $0x3f,%rdx
  40060a:	48 01 d0             	add    %rdx,%rax
  40060d:	48 89 c6             	mov    %rax,%rsi
  400610:	48 d1 fe             	sar    %rsi
  400613:	75 02                	jne    400617 <register_tm_clones+0x27>
  400615:	5d                   	pop    %rbp
  400616:	c3                   	retq   
  400617:	ba 00 00 00 00       	mov    $0x0,%edx
  40061c:	48 85 d2             	test   %rdx,%rdx
  40061f:	74 f4                	je     400615 <register_tm_clones+0x25>
  400621:	5d                   	pop    %rbp
  400622:	bf 48 10 60 00       	mov    $0x601048,%edi
  400627:	ff e2                	jmpq   *%rdx
  400629:	0f 1f 80 00 00 00 00 	nopl   0x0(%rax)

0000000000400630 <__do_global_dtors_aux>:
  400630:	80 3d 11 0a 20 00 00 	cmpb   $0x0,0x200a11(%rip)        # 601048 <__TMC_END__>
  400637:	75 11                	jne    40064a <__do_global_dtors_aux+0x1a>
  400639:	55                   	push   %rbp
  40063a:	48 89 e5             	mov    %rsp,%rbp
  40063d:	e8 7e ff ff ff       	callq  4005c0 <deregister_tm_clones>
  400642:	5d                   	pop    %rbp
  400643:	c6 05 fe 09 20 00 01 	movb   $0x1,0x2009fe(%rip)        # 601048 <__TMC_END__>
  40064a:	f3 c3                	repz retq 
  40064c:	0f 1f 40 00          	nopl   0x0(%rax)

0000000000400650 <frame_dummy>:
  400650:	48 83 3d c8 07 20 00 	cmpq   $0x0,0x2007c8(%rip)        # 600e20 <__JCR_END__>
  400657:	00 
  400658:	74 1b                	je     400675 <frame_dummy+0x25>
  40065a:	b8 00 00 00 00       	mov    $0x0,%eax
  40065f:	48 85 c0             	test   %rax,%rax
  400662:	74 11                	je     400675 <frame_dummy+0x25>
  400664:	55                   	push   %rbp
  400665:	bf 20 0e 60 00       	mov    $0x600e20,%edi
  40066a:	48 89 e5             	mov    %rsp,%rbp
  40066d:	ff d0                	callq  *%rax
  40066f:	5d                   	pop    %rbp
  400670:	e9 7b ff ff ff       	jmpq   4005f0 <register_tm_clones>
  400675:	e9 76 ff ff ff       	jmpq   4005f0 <register_tm_clones>
  40067a:	66 90                	xchg   %ax,%ax
  40067c:	0f 1f 40 00          	nopl   0x0(%rax)

0000000000400680 <gray_to_binary>:
  400680:	89 f8                	mov    %edi,%eax
  400682:	89 f9                	mov    %edi,%ecx
  400684:	66 25 00 80          	and    $0x8000,%ax
  400688:	66 81 e1 00 40       	and    $0x4000,%cx
  40068d:	89 c6                	mov    %eax,%esi
  40068f:	89 c2                	mov    %eax,%edx
  400691:	66 d1 ee             	shr    %si
  400694:	80 ce 40             	or     $0x40,%dh
  400697:	66 39 ce             	cmp    %cx,%si
  40069a:	89 fe                	mov    %edi,%esi
  40069c:	0f 45 c2             	cmovne %edx,%eax
  40069f:	66 81 e6 00 20       	and    $0x2000,%si
  4006a4:	89 c2                	mov    %eax,%edx
  4006a6:	89 c1                	mov    %eax,%ecx
  4006a8:	66 81 e2 00 40       	and    $0x4000,%dx
  4006ad:	80 cd 20             	or     $0x20,%ch
  4006b0:	66 d1 ea             	shr    %dx
  4006b3:	66 39 f2             	cmp    %si,%dx
  4006b6:	89 fe                	mov    %edi,%esi
  4006b8:	0f 45 c1             	cmovne %ecx,%eax
  4006bb:	66 81 e6 00 10       	and    $0x1000,%si
  4006c0:	89 c2                	mov    %eax,%edx
  4006c2:	89 c1                	mov    %eax,%ecx
  4006c4:	66 81 e2 00 20       	and    $0x2000,%dx
  4006c9:	80 cd 10             	or     $0x10,%ch
  4006cc:	66 d1 ea             	shr    %dx
  4006cf:	66 39 f2             	cmp    %si,%dx
  4006d2:	89 fe                	mov    %edi,%esi
  4006d4:	0f 45 c1             	cmovne %ecx,%eax
  4006d7:	66 81 e6 00 08       	and    $0x800,%si
  4006dc:	89 c2                	mov    %eax,%edx
  4006de:	89 c1                	mov    %eax,%ecx
  4006e0:	66 81 e2 00 10       	and    $0x1000,%dx
  4006e5:	80 cd 08             	or     $0x8,%ch
  4006e8:	66 d1 ea             	shr    %dx
  4006eb:	66 39 f2             	cmp    %si,%dx
  4006ee:	89 fe                	mov    %edi,%esi
  4006f0:	0f 45 c1             	cmovne %ecx,%eax
  4006f3:	66 81 e6 00 04       	and    $0x400,%si
  4006f8:	89 c2                	mov    %eax,%edx
  4006fa:	89 c1                	mov    %eax,%ecx
  4006fc:	66 81 e2 00 08       	and    $0x800,%dx
  400701:	80 cd 04             	or     $0x4,%ch
  400704:	66 d1 ea             	shr    %dx
  400707:	66 39 f2             	cmp    %si,%dx
  40070a:	89 fe                	mov    %edi,%esi
  40070c:	0f 45 c1             	cmovne %ecx,%eax
  40070f:	66 81 e6 00 02       	and    $0x200,%si
  400714:	89 c2                	mov    %eax,%edx
  400716:	89 c1                	mov    %eax,%ecx
  400718:	66 81 e2 00 04       	and    $0x400,%dx
  40071d:	80 cd 02             	or     $0x2,%ch
  400720:	66 d1 ea             	shr    %dx
  400723:	66 39 f2             	cmp    %si,%dx
  400726:	89 fe                	mov    %edi,%esi
  400728:	0f 45 c1             	cmovne %ecx,%eax
  40072b:	66 81 e6 00 01       	and    $0x100,%si
  400730:	89 c2                	mov    %eax,%edx
  400732:	89 c1                	mov    %eax,%ecx
  400734:	66 81 e2 00 02       	and    $0x200,%dx
  400739:	80 cd 01             	or     $0x1,%ch
  40073c:	66 d1 ea             	shr    %dx
  40073f:	66 39 f2             	cmp    %si,%dx
  400742:	89 fe                	mov    %edi,%esi
  400744:	0f 45 c1             	cmovne %ecx,%eax
  400747:	66 81 e6 80 00       	and    $0x80,%si
  40074c:	89 c2                	mov    %eax,%edx
  40074e:	89 c1                	mov    %eax,%ecx
  400750:	66 81 e2 00 01       	and    $0x100,%dx
  400755:	80 c9 80             	or     $0x80,%cl
  400758:	66 d1 ea             	shr    %dx
  40075b:	66 39 f2             	cmp    %si,%dx
  40075e:	89 fe                	mov    %edi,%esi
  400760:	0f 45 c1             	cmovne %ecx,%eax
  400763:	83 e6 40             	and    $0x40,%esi
  400766:	89 c2                	mov    %eax,%edx
  400768:	89 c1                	mov    %eax,%ecx
  40076a:	66 81 e2 80 00       	and    $0x80,%dx
  40076f:	83 c9 40             	or     $0x40,%ecx
  400772:	66 d1 ea             	shr    %dx
  400775:	66 39 f2             	cmp    %si,%dx
  400778:	89 fe                	mov    %edi,%esi
  40077a:	0f 45 c1             	cmovne %ecx,%eax
  40077d:	83 e6 20             	and    $0x20,%esi
  400780:	89 c2                	mov    %eax,%edx
  400782:	89 c1                	mov    %eax,%ecx
  400784:	83 e2 40             	and    $0x40,%edx
  400787:	83 c9 20             	or     $0x20,%ecx
  40078a:	66 d1 ea             	shr    %dx
  40078d:	66 39 f2             	cmp    %si,%dx
  400790:	89 fe                	mov    %edi,%esi
  400792:	0f 45 c1             	cmovne %ecx,%eax
  400795:	83 e6 10             	and    $0x10,%esi
  400798:	89 c2                	mov    %eax,%edx
  40079a:	89 c1                	mov    %eax,%ecx
  40079c:	83 e2 20             	and    $0x20,%edx
  40079f:	83 c9 10             	or     $0x10,%ecx
  4007a2:	66 d1 ea             	shr    %dx
  4007a5:	66 39 f2             	cmp    %si,%dx
  4007a8:	89 fe                	mov    %edi,%esi
  4007aa:	0f 45 c1             	cmovne %ecx,%eax
  4007ad:	83 e6 08             	and    $0x8,%esi
  4007b0:	89 c2                	mov    %eax,%edx
  4007b2:	89 c1                	mov    %eax,%ecx
  4007b4:	83 e2 10             	and    $0x10,%edx
  4007b7:	83 c9 08             	or     $0x8,%ecx
  4007ba:	66 d1 ea             	shr    %dx
  4007bd:	66 39 f2             	cmp    %si,%dx
  4007c0:	89 fe                	mov    %edi,%esi
  4007c2:	0f 45 c1             	cmovne %ecx,%eax
  4007c5:	83 e6 04             	and    $0x4,%esi
  4007c8:	89 c1                	mov    %eax,%ecx
  4007ca:	89 c2                	mov    %eax,%edx
  4007cc:	83 e1 08             	and    $0x8,%ecx
  4007cf:	83 ca 04             	or     $0x4,%edx
  4007d2:	66 d1 e9             	shr    %cx
  4007d5:	66 39 f1             	cmp    %si,%cx
  4007d8:	89 fe                	mov    %edi,%esi
  4007da:	0f 45 c2             	cmovne %edx,%eax
  4007dd:	83 e6 02             	and    $0x2,%esi
  4007e0:	89 c1                	mov    %eax,%ecx
  4007e2:	89 c2                	mov    %eax,%edx
  4007e4:	83 e1 04             	and    $0x4,%ecx
  4007e7:	83 ca 02             	or     $0x2,%edx
  4007ea:	66 d1 e9             	shr    %cx
  4007ed:	66 39 f1             	cmp    %si,%cx
  4007f0:	0f 44 d0             	cmove  %eax,%edx
  4007f3:	83 e7 01             	and    $0x1,%edi
  4007f6:	89 d1                	mov    %edx,%ecx
  4007f8:	89 d0                	mov    %edx,%eax
  4007fa:	83 e1 02             	and    $0x2,%ecx
  4007fd:	83 c8 01             	or     $0x1,%eax
  400800:	66 d1 e9             	shr    %cx
  400803:	66 39 f9             	cmp    %di,%cx
  400806:	0f 44 c2             	cmove  %edx,%eax
  400809:	c3                   	retq   
  40080a:	66 0f 1f 44 00 00    	nopw   0x0(%rax,%rax,1)

0000000000400810 <binary_to_gray>:
  400810:	89 f8                	mov    %edi,%eax
  400812:	89 fa                	mov    %edi,%edx
  400814:	66 25 00 80          	and    $0x8000,%ax
  400818:	66 81 e2 00 40       	and    $0x4000,%dx
  40081d:	89 c6                	mov    %eax,%esi
  40081f:	89 c1                	mov    %eax,%ecx
  400821:	66 d1 ee             	shr    %si
  400824:	80 cd 40             	or     $0x40,%ch
  400827:	66 39 f2             	cmp    %si,%dx
  40082a:	0f 45 c1             	cmovne %ecx,%eax
  40082d:	89 f9                	mov    %edi,%ecx
  40082f:	66 d1 ea             	shr    %dx
  400832:	66 81 e1 00 20       	and    $0x2000,%cx
  400837:	89 c6                	mov    %eax,%esi
  400839:	66 81 ce 00 20       	or     $0x2000,%si
  40083e:	66 39 ca             	cmp    %cx,%dx
  400841:	89 fa                	mov    %edi,%edx
  400843:	0f 45 c6             	cmovne %esi,%eax
  400846:	66 81 e2 00 10       	and    $0x1000,%dx
  40084b:	66 d1 e9             	shr    %cx
  40084e:	89 c6                	mov    %eax,%esi
  400850:	66 81 ce 00 10       	or     $0x1000,%si
  400855:	66 39 d1             	cmp    %dx,%cx
  400858:	89 f9                	mov    %edi,%ecx
  40085a:	0f 45 c6             	cmovne %esi,%eax
  40085d:	66 81 e1 00 08       	and    $0x800,%cx
  400862:	66 d1 ea             	shr    %dx
  400865:	89 c6                	mov    %eax,%esi
  400867:	66 81 ce 00 08       	or     $0x800,%si
  40086c:	66 39 ca             	cmp    %cx,%dx
  40086f:	89 fa                	mov    %edi,%edx
  400871:	0f 45 c6             	cmovne %esi,%eax
  400874:	66 81 e2 00 04       	and    $0x400,%dx
  400879:	66 d1 e9             	shr    %cx
  40087c:	89 c6                	mov    %eax,%esi
  40087e:	66 81 ce 00 04       	or     $0x400,%si
  400883:	66 39 d1             	cmp    %dx,%cx
  400886:	89 f9                	mov    %edi,%ecx
  400888:	0f 45 c6             	cmovne %esi,%eax
  40088b:	66 81 e1 00 02       	and    $0x200,%cx
  400890:	66 d1 ea             	shr    %dx
  400893:	89 c6                	mov    %eax,%esi
  400895:	66 81 ce 00 02       	or     $0x200,%si
  40089a:	66 39 ca             	cmp    %cx,%dx
  40089d:	89 fa                	mov    %edi,%edx
  40089f:	0f 45 c6             	cmovne %esi,%eax
  4008a2:	66 81 e2 00 01       	and    $0x100,%dx
  4008a7:	66 d1 e9             	shr    %cx
  4008aa:	89 c6                	mov    %eax,%esi
  4008ac:	66 81 ce 00 01       	or     $0x100,%si
  4008b1:	66 39 d1             	cmp    %dx,%cx
  4008b4:	89 f9                	mov    %edi,%ecx
  4008b6:	0f 45 c6             	cmovne %esi,%eax
  4008b9:	66 81 e1 80 00       	and    $0x80,%cx
  4008be:	66 d1 ea             	shr    %dx
  4008c1:	89 c6                	mov    %eax,%esi
  4008c3:	40 80 ce 80          	or     $0x80,%sil
  4008c7:	66 39 ca             	cmp    %cx,%dx
  4008ca:	89 fa                	mov    %edi,%edx
  4008cc:	0f 45 c6             	cmovne %esi,%eax
  4008cf:	83 e2 40             	and    $0x40,%edx
  4008d2:	66 d1 e9             	shr    %cx
  4008d5:	89 c6                	mov    %eax,%esi
  4008d7:	83 ce 40             	or     $0x40,%esi
  4008da:	66 39 d1             	cmp    %dx,%cx
  4008dd:	89 f9                	mov    %edi,%ecx
  4008df:	0f 45 c6             	cmovne %esi,%eax
  4008e2:	83 e1 20             	and    $0x20,%ecx
  4008e5:	66 d1 ea             	shr    %dx
  4008e8:	89 c6                	mov    %eax,%esi
  4008ea:	83 ce 20             	or     $0x20,%esi
  4008ed:	66 39 ca             	cmp    %cx,%dx
  4008f0:	89 fa                	mov    %edi,%edx
  4008f2:	0f 45 c6             	cmovne %esi,%eax
  4008f5:	83 e2 10             	and    $0x10,%edx
  4008f8:	66 d1 e9             	shr    %cx
  4008fb:	89 c6                	mov    %eax,%esi
  4008fd:	83 ce 10             	or     $0x10,%esi
  400900:	66 39 d1             	cmp    %dx,%cx
  400903:	89 f9                	mov    %edi,%ecx
  400905:	0f 45 c6             	cmovne %esi,%eax
  400908:	83 e1 08             	and    $0x8,%ecx
  40090b:	66 d1 ea             	shr    %dx
  40090e:	89 c6                	mov    %eax,%esi
  400910:	83 ce 08             	or     $0x8,%esi
  400913:	66 39 ca             	cmp    %cx,%dx
  400916:	0f 45 c6             	cmovne %esi,%eax
  400919:	89 fe                	mov    %edi,%esi
  40091b:	66 d1 e9             	shr    %cx
  40091e:	83 e6 04             	and    $0x4,%esi
  400921:	89 c2                	mov    %eax,%edx
  400923:	83 ca 04             	or     $0x4,%edx
  400926:	66 39 f1             	cmp    %si,%cx
  400929:	89 f9                	mov    %edi,%ecx
  40092b:	0f 45 c2             	cmovne %edx,%eax
  40092e:	83 e1 02             	and    $0x2,%ecx
  400931:	66 d1 ee             	shr    %si
  400934:	89 c2                	mov    %eax,%edx
  400936:	83 ca 02             	or     $0x2,%edx
  400939:	66 39 ce             	cmp    %cx,%si
  40093c:	0f 44 d0             	cmove  %eax,%edx
  40093f:	83 e7 01             	and    $0x1,%edi
  400942:	66 d1 e9             	shr    %cx
  400945:	89 d0                	mov    %edx,%eax
  400947:	83 c8 01             	or     $0x1,%eax
  40094a:	66 39 f9             	cmp    %di,%cx
  40094d:	0f 44 c2             	cmove  %edx,%eax
  400950:	c3                   	retq   
  400951:	66 2e 0f 1f 84 00 00 	nopw   %cs:0x0(%rax,%rax,1)
  400958:	00 00 00 
  40095b:	0f 1f 44 00 00       	nopl   0x0(%rax,%rax,1)

0000000000400960 <__libc_csu_init>:
  400960:	48 89 6c 24 d8       	mov    %rbp,-0x28(%rsp)
  400965:	4c 89 64 24 e0       	mov    %r12,-0x20(%rsp)
  40096a:	48 8d 2d a7 04 20 00 	lea    0x2004a7(%rip),%rbp        # 600e18 <__init_array_end>
  400971:	4c 8d 25 98 04 20 00 	lea    0x200498(%rip),%r12        # 600e10 <__frame_dummy_init_array_entry>
  400978:	48 89 5c 24 d0       	mov    %rbx,-0x30(%rsp)
  40097d:	4c 89 6c 24 e8       	mov    %r13,-0x18(%rsp)
  400982:	4c 89 74 24 f0       	mov    %r14,-0x10(%rsp)
  400987:	4c 89 7c 24 f8       	mov    %r15,-0x8(%rsp)
  40098c:	48 83 ec 38          	sub    $0x38,%rsp
  400990:	4c 29 e5             	sub    %r12,%rbp
  400993:	41 89 ff             	mov    %edi,%r15d
  400996:	49 89 f6             	mov    %rsi,%r14
  400999:	48 c1 fd 03          	sar    $0x3,%rbp
  40099d:	49 89 d5             	mov    %rdx,%r13
  4009a0:	31 db                	xor    %ebx,%ebx
  4009a2:	e8 b9 fa ff ff       	callq  400460 <_init>
  4009a7:	48 85 ed             	test   %rbp,%rbp
  4009aa:	74 1a                	je     4009c6 <__libc_csu_init+0x66>
  4009ac:	0f 1f 40 00          	nopl   0x0(%rax)
  4009b0:	4c 89 ea             	mov    %r13,%rdx
  4009b3:	4c 89 f6             	mov    %r14,%rsi
  4009b6:	44 89 ff             	mov    %r15d,%edi
  4009b9:	41 ff 14 dc          	callq  *(%r12,%rbx,8)
  4009bd:	48 83 c3 01          	add    $0x1,%rbx
  4009c1:	48 39 eb             	cmp    %rbp,%rbx
  4009c4:	75 ea                	jne    4009b0 <__libc_csu_init+0x50>
  4009c6:	48 8b 5c 24 08       	mov    0x8(%rsp),%rbx
  4009cb:	48 8b 6c 24 10       	mov    0x10(%rsp),%rbp
  4009d0:	4c 8b 64 24 18       	mov    0x18(%rsp),%r12
  4009d5:	4c 8b 6c 24 20       	mov    0x20(%rsp),%r13
  4009da:	4c 8b 74 24 28       	mov    0x28(%rsp),%r14
  4009df:	4c 8b 7c 24 30       	mov    0x30(%rsp),%r15
  4009e4:	48 83 c4 38          	add    $0x38,%rsp
  4009e8:	c3                   	retq   
  4009e9:	0f 1f 80 00 00 00 00 	nopl   0x0(%rax)

00000000004009f0 <__libc_csu_fini>:
  4009f0:	f3 c3                	repz retq 
  4009f2:	66 90                	xchg   %ax,%ax

Disassembly of section .fini:

00000000004009f4 <_fini>:
  4009f4:	48 83 ec 08          	sub    $0x8,%rsp
  4009f8:	48 83 c4 08          	add    $0x8,%rsp
  4009fc:	c3                   	retq   
